target datalayout = "e-m:e-p270:32:32-p271:32:32-p272:64:64-i64:64-i128:128-f80:128-n8:16:32:64-S128"
target triple = "x86_64-pc-linux-gnu"

%struct.SN_env = type { ptr, i32, i32, i32, i32, i32, ptr, ptr }

@s_10 = internal constant [1 x i8] c"a", align 1
@s_11 = internal constant [1 x i8] c"e", align 1

; Function Attrs: nounwind uwtable
define internal i32 @r_R1(ptr noundef %0) #0 {
  %2 = alloca i32, align 4
  %3 = alloca ptr, align 8
  store ptr %0, ptr %3, align 8
  %4 = load ptr, ptr %3, align 8
  %5 = getelementptr inbounds nuw %struct.SN_env, ptr %4, i32 0, i32 7
  %6 = load ptr, ptr %5, align 8
  %7 = getelementptr inbounds i32, ptr %6, i64 0
  %8 = load i32, ptr %7, align 4
  %9 = load ptr, ptr %3, align 8
  %10 = getelementptr inbounds nuw %struct.SN_env, ptr %9, i32 0, i32 1
  %11 = load i32, ptr %10, align 8
  %12 = icmp sle i32 %8, %11
  br i1 %12, label %14, label %13

13:                                               ; preds = %1
  store i32 0, ptr %2, align 4
  br label %15

14:                                               ; preds = %1
  store i32 1, ptr %2, align 4
  br label %15

15:                                               ; preds = %14, %13
  %16 = load i32, ptr %2, align 4
  ret i32 %16
}

; Function Attrs: nounwind uwtable
define internal i32 @r_sing_owner(ptr noundef %0) #0 {
  %2 = alloca i32, align 4
  %3 = alloca ptr, align 8
  %4 = alloca i32, align 4
  %5 = alloca i32, align 4
  %6 = alloca i32, align 4
  %7 = alloca i32, align 4
  %8 = alloca i32, align 4
  %9 = alloca i32, align 4
  store ptr %0, ptr %3, align 8
  call void @llvm.lifetime.start.p0(i64 4, ptr %4) #3
  %10 = load ptr, ptr %3, align 8
  %11 = getelementptr inbounds nuw %struct.SN_env, ptr %10, i32 0, i32 1
  %12 = load i32, ptr %11, align 8
  %13 = load ptr, ptr %3, align 8
  %14 = getelementptr inbounds nuw %struct.SN_env, ptr %13, i32 0, i32 5
  store i32 %12, ptr %14, align 8
  %15 = load ptr, ptr %3, align 8
  %16 = call i32 @find_among_b(ptr noundef %15, ptr noundef @a_10, i32 noundef 31)
  store i32 %16, ptr %4, align 4
  %17 = load i32, ptr %4, align 4
  %18 = icmp ne i32 %17, 0
  br i1 %18, label %20, label %19

19:                                               ; preds = %1
  store i32 0, ptr %2, align 4
  store i32 1, ptr %5, align 4
  br label %71

20:                                               ; preds = %1
  %21 = load ptr, ptr %3, align 8
  %22 = getelementptr inbounds nuw %struct.SN_env, ptr %21, i32 0, i32 1
  %23 = load i32, ptr %22, align 8
  %24 = load ptr, ptr %3, align 8
  %25 = getelementptr inbounds nuw %struct.SN_env, ptr %24, i32 0, i32 4
  store i32 %23, ptr %25, align 4
  call void @llvm.lifetime.start.p0(i64 4, ptr %6) #3
  %26 = load ptr, ptr %3, align 8
  %27 = call i32 @r_R1(ptr noundef %26)
  store i32 %27, ptr %6, align 4
  %28 = load i32, ptr %6, align 4
  %29 = icmp sle i32 %28, 0
  br i1 %29, label %30, label %32

30:                                               ; preds = %20
  %31 = load i32, ptr %6, align 4
  store i32 %31, ptr %2, align 4
  store i32 1, ptr %5, align 4
  br label %33

32:                                               ; preds = %20
  store i32 0, ptr %5, align 4
  br label %33

33:                                               ; preds = %32, %30
  call void @llvm.lifetime.end.p0(i64 4, ptr %6) #3
  %34 = load i32, ptr %5, align 4
  switch i32 %34, label %71 [
    i32 0, label %35
  ]

35:                                               ; preds = %33
  %36 = load i32, ptr %4, align 4
  switch i32 %36, label %70 [
    i32 1, label %37
    i32 2, label %48
    i32 3, label %59
  ]

37:                                               ; preds = %35
  call void @llvm.lifetime.start.p0(i64 4, ptr %7) #3
  %38 = load ptr, ptr %3, align 8
  %39 = call i32 @slice_del(ptr noundef %38)
  store i32 %39, ptr %7, align 4
  %40 = load i32, ptr %7, align 4
  %41 = icmp slt i32 %40, 0
  br i1 %41, label %42, label %44

42:                                               ; preds = %37
  %43 = load i32, ptr %7, align 4
  store i32 %43, ptr %2, align 4
  store i32 1, ptr %5, align 4
  br label %45

44:                                               ; preds = %37
  store i32 0, ptr %5, align 4
  br label %45

45:                                               ; preds = %44, %42
  call void @llvm.lifetime.end.p0(i64 4, ptr %7) #3
  %46 = load i32, ptr %5, align 4
  switch i32 %46, label %71 [
    i32 0, label %47
  ]

47:                                               ; preds = %45
  br label %70

48:                                               ; preds = %35
  call void @llvm.lifetime.start.p0(i64 4, ptr %8) #3
  %49 = load ptr, ptr %3, align 8
  %50 = call i32 @slice_from_s(ptr noundef %49, i32 noundef 1, ptr noundef @s_10)
  store i32 %50, ptr %8, align 4
  %51 = load i32, ptr %8, align 4
  %52 = icmp slt i32 %51, 0
  br i1 %52, label %53, label %55

53:                                               ; preds = %48
  %54 = load i32, ptr %8, align 4
  store i32 %54, ptr %2, align 4
  store i32 1, ptr %5, align 4
  br label %56

55:                                               ; preds = %48
  store i32 0, ptr %5, align 4
  br label %56

56:                                               ; preds = %55, %53
  call void @llvm.lifetime.end.p0(i64 4, ptr %8) #3
  %57 = load i32, ptr %5, align 4
  switch i32 %57, label %71 [
    i32 0, label %58
  ]

58:                                               ; preds = %56
  br label %70

59:                                               ; preds = %35
  call void @llvm.lifetime.start.p0(i64 4, ptr %9) #3
  %60 = load ptr, ptr %3, align 8
  %61 = call i32 @slice_from_s(ptr noundef %60, i32 noundef 1, ptr noundef @s_11)
  store i32 %61, ptr %9, align 4
  %62 = load i32, ptr %9, align 4
  %63 = icmp slt i32 %62, 0
  br i1 %63, label %64, label %66

64:                                               ; preds = %59
  %65 = load i32, ptr %9, align 4
  store i32 %65, ptr %2, align 4
  store i32 1, ptr %5, align 4
  br label %67

66:                                               ; preds = %59
  store i32 0, ptr %5, align 4
  br label %67

67:                                               ; preds = %66, %64
  call void @llvm.lifetime.end.p0(i64 4, ptr %9) #3
  %68 = load i32, ptr %5, align 4
  switch i32 %68, label %71 [
    i32 0, label %69
  ]

69:                                               ; preds = %67
  br label %70

70:                                               ; preds = %35, %69, %58, %47
  store i32 1, ptr %2, align 4
  store i32 1, ptr %5, align 4
  br label %71

71:                                               ; preds = %70, %67, %56, %45, %33, %19
  call void @llvm.lifetime.end.p0(i64 4, ptr %4) #3
  %72 = load i32, ptr %2, align 4
  ret i32 %72
}